; Function Attrs: nounwind uwtable
define hidden void @_PyModule_Clear(ptr noundef readonly captures(none) %0) local_unnamed_addr #0 {
  %2 = getelementptr inbounds nuw i8, ptr %0, i64 16
  %3 = load ptr, ptr %2, align 8, !tbaa !23
  %.not = icmp eq ptr %3, null
  br i1 %.not, label %5, label %4

4:                                                ; preds = %1
  tail call void @_PyModule_ClearDict(ptr noundef nonnull %3)
  br label %5

5:                                                ; preds = %4, %1
  ret void
}